; Function Attrs: nounwind uwtable
define ptr @l_Lean_unresolveNameGlobalAvoidingLocals___rarg___lambda__1(ptr noundef %0, ptr noundef %1, ptr noundef %2, ptr noundef %3, ptr noundef %4) #1 {
  %6 = getelementptr inbounds nuw i8, ptr %0, i64 8
  %7 = load ptr, ptr %6, align 8, !tbaa !9
  %8 = ptrtoint ptr %7 to i64
  %9 = and i64 %8, 1
  %.not = icmp eq i64 %9, 0
  br i1 %.not, label %10, label %lean_inc.exit18

10:                                               ; preds = %5
  %.val.i = load i32, ptr %7, align 4, !tbaa !4
  %11 = icmp sgt i32 %.val.i, 0
  br i1 %11, label %12, label %14, !prof !11

12:                                               ; preds = %10
  %13 = add nuw i32 %.val.i, 1
  store i32 %13, ptr %7, align 4, !tbaa !4
  br label %lean_inc.exit18

14:                                               ; preds = %10
  %.not.i22 = icmp eq i32 %.val.i, 0
  br i1 %.not.i22, label %lean_inc.exit18, label %15

15:                                               ; preds = %14
  tail call void @lean_inc_ref_cold(ptr noundef nonnull %7) #6
  br label %lean_inc.exit18

lean_inc.exit18:                                  ; preds = %15, %14, %12, %5
  %16 = getelementptr inbounds nuw i8, ptr %7, i64 8
  %17 = load ptr, ptr %16, align 8, !tbaa !9
  %18 = ptrtoint ptr %17 to i64
  %19 = and i64 %18, 1
  %.not29 = icmp eq i64 %19, 0
  br i1 %.not29, label %20, label %lean_inc.exit17

20:                                               ; preds = %lean_inc.exit18
  %.val.i23 = load i32, ptr %17, align 4, !tbaa !4
  %21 = icmp sgt i32 %.val.i23, 0
  br i1 %21, label %22, label %24, !prof !11

22:                                               ; preds = %20
  %23 = add nuw i32 %.val.i23, 1
  store i32 %23, ptr %17, align 4, !tbaa !4
  br label %lean_inc.exit17

24:                                               ; preds = %20
  %.not.i24 = icmp eq i32 %.val.i23, 0
  br i1 %.not.i24, label %lean_inc.exit17, label %25

25:                                               ; preds = %24
  tail call void @lean_inc_ref_cold(ptr noundef nonnull %17) #6
  br label %lean_inc.exit17

lean_inc.exit17:                                  ; preds = %25, %24, %22, %lean_inc.exit18
  br i1 %.not, label %26, label %lean_dec.exit19

26:                                               ; preds = %lean_inc.exit17
  %27 = load i32, ptr %7, align 4, !tbaa !4
  %28 = icmp sgt i32 %27, 1
  br i1 %28, label %29, label %31, !prof !11

29:                                               ; preds = %26
  %30 = add nsw i32 %27, -1
  store i32 %30, ptr %7, align 4, !tbaa !4
  br label %lean_dec.exit19

31:                                               ; preds = %26
  %.not.i = icmp eq i32 %27, 0
  br i1 %.not.i, label %lean_dec.exit19, label %32

32:                                               ; preds = %31
  tail call void @lean_dec_ref_cold(ptr noundef nonnull %7) #6
  br label %lean_dec.exit19

lean_dec.exit19:                                  ; preds = %32, %31, %29, %lean_inc.exit17
  %33 = getelementptr inbounds nuw i8, ptr %17, i64 8
  %34 = load ptr, ptr %33, align 8, !tbaa !9
  %35 = ptrtoint ptr %34 to i64
  %36 = and i64 %35, 1
  %.not30 = icmp eq i64 %36, 0
  br i1 %.not30, label %37, label %lean_inc.exit

37:                                               ; preds = %lean_dec.exit19
  %.val.i26 = load i32, ptr %34, align 4, !tbaa !4
  %38 = icmp sgt i32 %.val.i26, 0
  br i1 %38, label %39, label %41, !prof !11

39:                                               ; preds = %37
  %40 = add nuw i32 %.val.i26, 1
  store i32 %40, ptr %34, align 4, !tbaa !4
  br label %lean_inc.exit

41:                                               ; preds = %37
  %.not.i27 = icmp eq i32 %.val.i26, 0
  br i1 %.not.i27, label %lean_inc.exit, label %42

42:                                               ; preds = %41
  tail call void @lean_inc_ref_cold(ptr noundef nonnull %34) #6
  br label %lean_inc.exit

lean_inc.exit:                                    ; preds = %42, %41, %39, %lean_dec.exit19
  br i1 %.not29, label %43, label %lean_dec.exit

43:                                               ; preds = %lean_inc.exit
  %44 = load i32, ptr %17, align 4, !tbaa !4
  %45 = icmp sgt i32 %44, 1
  br i1 %45, label %46, label %48, !prof !11

46:                                               ; preds = %43
  %47 = add nsw i32 %44, -1
  store i32 %47, ptr %17, align 4, !tbaa !4
  br label %lean_dec.exit

48:                                               ; preds = %43
  %.not.i20 = icmp eq i32 %44, 0
  br i1 %.not.i20, label %lean_dec.exit, label %49

49:                                               ; preds = %48
  tail call void @lean_dec_ref_cold(ptr noundef nonnull %17) #6
  br label %lean_dec.exit

lean_dec.exit:                                    ; preds = %49, %48, %46, %lean_inc.exit
  %50 = tail call ptr @l_Lean_resolveLocalName___rarg(ptr noundef nonnull %0, ptr noundef %1, ptr noundef %2, ptr noundef %3, ptr noundef %4)
  %51 = load ptr, ptr @l_Lean_unresolveNameGlobalAvoidingLocals___rarg___lambda__1___closed__1, align 8, !tbaa !9
  %52 = tail call ptr @lean_apply_4(ptr noundef %34, ptr noundef nonnull inttoptr (i64 1 to ptr), ptr noundef nonnull inttoptr (i64 1 to ptr), ptr noundef %51, ptr noundef %50) #6
  ret ptr %52
}